; Function Attrs: mustprogress uwtable
define noundef nonnull align 8 dereferenceable(24) ptr @_ZN2mu14ParserErrorMsg8InstanceEv() local_unnamed_addr #9 align 2 personality ptr @__gxx_personality_v0 {
  %1 = load atomic i8, ptr @_ZGVZN2mu14ParserErrorMsg8InstanceEvE8instance acquire, align 8
  %2 = icmp eq i8 %1, 0
  br i1 %2, label %3, label %8, !prof !4

3:                                                ; preds = %0
  %4 = tail call i32 @__cxa_guard_acquire(ptr nonnull @_ZGVZN2mu14ParserErrorMsg8InstanceEvE8instance) #19
  %.not = icmp eq i32 %4, 0
  br i1 %.not, label %8, label %5

5:                                                ; preds = %3
  invoke void @_ZN2mu14ParserErrorMsgC1Ev(ptr noundef nonnull align 8 dereferenceable(24) @_ZZN2mu14ParserErrorMsg8InstanceEvE8instance)
          to label %6 unwind label %9

6:                                                ; preds = %5
  %7 = tail call i32 @__cxa_atexit(ptr nonnull @_ZN2mu14ParserErrorMsgD2Ev, ptr nonnull @_ZZN2mu14ParserErrorMsg8InstanceEvE8instance, ptr nonnull @__dso_handle) #19
  tail call void @__cxa_guard_release(ptr nonnull @_ZGVZN2mu14ParserErrorMsg8InstanceEvE8instance) #19
  br label %8

8:                                                ; preds = %6, %3, %0
  ret ptr @_ZZN2mu14ParserErrorMsg8InstanceEvE8instance

9:                                                ; preds = %5
  %10 = landingpad { ptr, i32 }
          cleanup
  tail call void @__cxa_guard_abort(ptr nonnull @_ZGVZN2mu14ParserErrorMsg8InstanceEvE8instance) #19
  resume { ptr, i32 } %10
}